; Function Attrs: mustprogress nofree norecurse nosync nounwind willreturn memory(argmem: read) uwtable
define internal noundef double @_ZN3gmx15analysismodules12_GLOBAL__N_123calcAverageDisplacementILb1ELb1ELb1EEEdNS_8ArrayRefIKNS_11BasicVectorIfEEEES7_(ptr %0, ptr %1, ptr nocapture readonly %2, ptr nocapture readnone %3) #4 {
  %5 = ptrtoint ptr %1 to i64
  %6 = ptrtoint ptr %0 to i64
  %7 = sub i64 %5, %6
  %8 = sdiv exact i64 %7, 12
  %.not = icmp eq ptr %1, %0
  br i1 %.not, label %._crit_edge, label %.lr.ph.preheader

.lr.ph.preheader:                                 ; preds = %4
  %umax = tail call i64 @llvm.umax.i64(i64 %8, i64 1)
  br label %.lr.ph

.lr.ph:                                           ; preds = %.lr.ph.preheader, %.lr.ph
  %.016 = phi double [ %23, %.lr.ph ], [ 0.000000e+00, %.lr.ph.preheader ]
  %.01115 = phi i64 [ %24, %.lr.ph ], [ 0, %.lr.ph.preheader ]
  %9 = getelementptr inbounds %"class.gmx::BasicVector", ptr %0, i64 %.01115
  %.sroa.05.0.copyload = load <2 x float>, ptr %9, align 4
  %.sroa.26.0..sroa_idx = getelementptr inbounds i8, ptr %9, i64 8
  %.sroa.26.0.copyload = load float, ptr %.sroa.26.0..sroa_idx, align 4
  %10 = getelementptr inbounds %"class.gmx::BasicVector", ptr %2, i64 %.01115
  %.sroa.03.0.copyload = load <2 x float>, ptr %10, align 4
  %.sroa.24.0..sroa_idx = getelementptr inbounds i8, ptr %10, i64 8
  %.sroa.24.0.copyload = load float, ptr %.sroa.24.0..sroa_idx, align 4
  %.sroa.017.0.vec.extract.i = extractelement <2 x float> %.sroa.05.0.copyload, i64 0
  %11 = fpext float %.sroa.017.0.vec.extract.i to double
  %.sroa.017.4.vec.extract.i = extractelement <2 x float> %.sroa.05.0.copyload, i64 1
  %12 = fpext float %.sroa.017.4.vec.extract.i to double
  %13 = fpext float %.sroa.26.0.copyload to double
  %.sroa.015.0.vec.extract.i = extractelement <2 x float> %.sroa.03.0.copyload, i64 0
  %14 = fpext float %.sroa.015.0.vec.extract.i to double
  %.sroa.015.4.vec.extract.i = extractelement <2 x float> %.sroa.03.0.copyload, i64 1
  %15 = fpext float %.sroa.015.4.vec.extract.i to double
  %16 = fpext float %.sroa.24.0.copyload to double
  %17 = fsub double %11, %14
  %18 = tail call double @llvm.fmuladd.f64(double %17, double %17, double 0.000000e+00)
  %19 = fsub double %12, %15
  %20 = tail call double @llvm.fmuladd.f64(double %19, double %19, double %18)
  %21 = fsub double %13, %16
  %22 = tail call noundef double @llvm.fmuladd.f64(double %21, double %21, double %20)
  %23 = fadd double %.016, %22
  %24 = add nuw i64 %.01115, 1
  %exitcond.not = icmp eq i64 %24, %umax
  br i1 %exitcond.not, label %._crit_edge, label %.lr.ph, !llvm.loop !47

._crit_edge:                                      ; preds = %.lr.ph, %4
  %.0.lcssa = phi double [ 0.000000e+00, %4 ], [ %23, %.lr.ph ]
  %25 = uitofp i64 %8 to double
  %26 = fdiv double %.0.lcssa, %25
  ret double %26
}